; Function Attrs: nounwind uwtable
define dso_local ptr @PyModule_GetName(ptr noundef readonly captures(none) %0) local_unnamed_addr #0 {
  %2 = tail call ptr @PyModule_GetNameObject(ptr noundef %0)
  %3 = icmp eq ptr %2, null
  br i1 %3, label %11, label %4

4:                                                ; preds = %1
  %5 = load i32, ptr %2, align 8, !tbaa !22
  %.not.i = icmp sgt i32 %5, -1
  br i1 %.not.i, label %6, label %Py_DECREF.exit

6:                                                ; preds = %4
  %7 = add nsw i32 %5, -1
  store i32 %7, ptr %2, align 8, !tbaa !22
  %8 = icmp eq i32 %7, 0
  br i1 %8, label %9, label %Py_DECREF.exit

9:                                                ; preds = %6
  tail call void @_Py_Dealloc(ptr noundef nonnull %2) #8
  br label %Py_DECREF.exit

Py_DECREF.exit:                                   ; preds = %4, %6, %9
  %10 = tail call ptr @PyUnicode_AsUTF8(ptr noundef nonnull %2) #8
  br label %11

11:                                               ; preds = %1, %Py_DECREF.exit
  %.0 = phi ptr [ %10, %Py_DECREF.exit ], [ null, %1 ]
  ret ptr %.0
}